; ModuleID = 'source-C-CXX/46/2377.cpp'
source_filename = "source-C-CXX/46/2377.cpp"
target datalayout = "e-m:e-p270:32:32-p271:32:32-p272:64:64-i64:64-f80:128-n8:16:32:64-S128"
target triple = "x86_64-pc-linux-gnu"

%"class.std::ios_base::Init" = type { i8 }
%"class.std::basic_istream" = type { i32 (...)**, i64, %"class.std::basic_ios" }
%"class.std::basic_ios" = type { %"class.std::ios_base", %"class.std::basic_ostream"*, i8, i8, %"class.std::basic_streambuf"*, %"class.std::ctype"*, %"class.std::num_put"*, %"class.std::num_get"* }
%"class.std::ios_base" = type { i32 (...)**, i64, i64, i32, i32, i32, %"struct.std::ios_base::_Callback_list"*, %"struct.std::ios_base::_Words", [8 x %"struct.std::ios_base::_Words"], i32, %"struct.std::ios_base::_Words"*, %"class.std::locale" }
%"struct.std::ios_base::_Callback_list" = type { %"struct.std::ios_base::_Callback_list"*, void (i32, %"class.std::ios_base"*, i32)*, i32, i32 }
%"struct.std::ios_base::_Words" = type { i8*, i64 }
%"class.std::locale" = type { %"class.std::locale::_Impl"* }
%"class.std::locale::_Impl" = type { i32, %"class.std::locale::facet"**, i64, %"class.std::locale::facet"**, i8** }
%"class.std::locale::facet" = type <{ i32 (...)**, i32, [4 x i8] }>
%"class.std::basic_ostream" = type { i32 (...)**, %"class.std::basic_ios" }
%"class.std::basic_streambuf" = type { i32 (...)**, i8*, i8*, i8*, i8*, i8*, i8*, %"class.std::locale" }
%"class.std::ctype" = type <{ %"class.std::locale::facet.base", [4 x i8], %struct.__locale_struct*, i8, [7 x i8], i32*, i32*, i16*, i8, [256 x i8], [256 x i8], i8, [6 x i8] }>
%"class.std::locale::facet.base" = type <{ i32 (...)**, i32 }>
%struct.__locale_struct = type { [13 x %struct.__locale_data*], i16*, i32*, i32*, [13 x i8*] }
%struct.__locale_data = type opaque
%"class.std::num_put" = type { %"class.std::locale::facet.base", [4 x i8] }
%"class.std::num_get" = type { %"class.std::locale::facet.base", [4 x i8] }

@_ZStL8__ioinit = internal global %"class.std::ios_base::Init" zeroinitializer, align 1
@__dso_handle = external hidden global i8
@_ZSt3cin = external global %"class.std::basic_istream", align 8
@_ZSt4cout = external global %"class.std::basic_ostream", align 8
@llvm.global_ctors = appending global [1 x { i32, void ()*, i8* }] [{ i32, void ()*, i8* } { i32 65535, void ()* @_GLOBAL__sub_I_2377.cpp, i8* null }]

declare void @_ZNSt8ios_base4InitC1Ev(%"class.std::ios_base::Init"* nonnull align 1 dereferenceable(1)) unnamed_addr #0

; Function Attrs: nounwind
declare void @_ZNSt8ios_base4InitD1Ev(%"class.std::ios_base::Init"* nonnull align 1 dereferenceable(1)) unnamed_addr #1

; Function Attrs: nofree nounwind
declare i32 @__cxa_atexit(void (i8*)*, i8*, i8*) local_unnamed_addr #2

; Function Attrs: mustprogress norecurse sspstrong uwtable
define dso_local i32 @main(i32 %0, i8** nocapture readnone %1) local_unnamed_addr #3 {
  %3 = alloca i8, align 1
  %4 = alloca i32, align 4
  %5 = bitcast i32* %4 to i8*
  call void @llvm.lifetime.start.p0i8(i64 4, i8* nonnull %5) #7
  %6 = call nonnull align 8 dereferenceable(16) %"class.std::basic_istream"* @_ZNSirsERi(%"class.std::basic_istream"* nonnull align 8 dereferenceable(16) @_ZSt3cin, i32* nonnull align 4 dereferenceable(4) %4)
  %7 = load i32, i32* %4, align 4, !tbaa !5
  %8 = add nsw i32 %7, 3
  %9 = zext i32 %8 to i64
  %10 = call i8* @llvm.stacksave()
  %11 = alloca i32, i64 %9, align 16
  %12 = load i32, i32* %4, align 4, !tbaa !5
  %13 = icmp sgt i32 %12, 0
  br i1 %13, label %26, label %14

14:                                               ; preds = %2
  %15 = sext i32 %12 to i64
  br label %77

16:                                               ; preds = %26
  %17 = sext i32 %31 to i64
  %18 = icmp sgt i32 %31, 1
  br i1 %18, label %19, label %77

19:                                               ; preds = %16
  %20 = lshr i32 %31, 1
  %21 = zext i32 %20 to i64
  %22 = and i64 %21, 1
  %23 = icmp eq i32 %20, 1
  br i1 %23, label %34, label %24

24:                                               ; preds = %19
  %25 = and i64 %21, 2147483646
  br label %45

26:                                               ; preds = %2, %26
  %27 = phi i64 [ %30, %26 ], [ 0, %2 ]
  %28 = getelementptr inbounds i32, i32* %11, i64 %27
  %29 = call nonnull align 8 dereferenceable(16) %"class.std::basic_istream"* @_ZNSirsERi(%"class.std::basic_istream"* nonnull align 8 dereferenceable(16) @_ZSt3cin, i32* nonnull align 4 dereferenceable(4) %28)
  %30 = add nuw nsw i64 %27, 1
  %31 = load i32, i32* %4, align 4, !tbaa !5
  %32 = sext i32 %31 to i64
  %33 = icmp slt i64 %30, %32
  br i1 %33, label %26, label %16, !llvm.loop !9

34:                                               ; preds = %45, %19
  %35 = phi i64 [ 0, %19 ], [ %61, %45 ]
  %36 = icmp eq i64 %22, 0
  br i1 %36, label %44, label %37

37:                                               ; preds = %34
  %38 = getelementptr inbounds i32, i32* %11, i64 %35
  %39 = load i32, i32* %38, align 4, !tbaa !5
  %40 = xor i64 %35, -1
  %41 = add nsw i64 %17, %40
  %42 = getelementptr inbounds i32, i32* %11, i64 %41
  %43 = load i32, i32* %42, align 4, !tbaa !5
  store i32 %43, i32* %38, align 4, !tbaa !5
  store i32 %39, i32* %42, align 4, !tbaa !5
  br label %44

44:                                               ; preds = %34, %37
  br i1 %18, label %64, label %77

45:                                               ; preds = %45, %24
  %46 = phi i64 [ 0, %24 ], [ %61, %45 ]
  %47 = phi i64 [ %25, %24 ], [ %62, %45 ]
  %48 = getelementptr inbounds i32, i32* %11, i64 %46
  %49 = load i32, i32* %48, align 8, !tbaa !5
  %50 = xor i64 %46, -1
  %51 = add nsw i64 %17, %50
  %52 = getelementptr inbounds i32, i32* %11, i64 %51
  %53 = load i32, i32* %52, align 4, !tbaa !5
  store i32 %53, i32* %48, align 8, !tbaa !5
  store i32 %49, i32* %52, align 4, !tbaa !5
  %54 = or i64 %46, 1
  %55 = getelementptr inbounds i32, i32* %11, i64 %54
  %56 = load i32, i32* %55, align 4, !tbaa !5
  %57 = sub nuw nsw i64 -2, %46
  %58 = add nsw i64 %57, %17
  %59 = getelementptr inbounds i32, i32* %11, i64 %58
  %60 = load i32, i32* %59, align 4, !tbaa !5
  store i32 %60, i32* %55, align 4, !tbaa !5
  store i32 %56, i32* %59, align 4, !tbaa !5
  %61 = add nuw nsw i64 %46, 2
  %62 = add i64 %47, -2
  %63 = icmp eq i64 %62, 0
  br i1 %63, label %34, label %45, !llvm.loop !11

64:                                               ; preds = %44, %64
  %65 = phi i64 [ %70, %64 ], [ 0, %44 ]
  %66 = getelementptr inbounds i32, i32* %11, i64 %65
  %67 = load i32, i32* %66, align 4, !tbaa !5
  %68 = call nonnull align 8 dereferenceable(8) %"class.std::basic_ostream"* @_ZNSolsEi(%"class.std::basic_ostream"* nonnull align 8 dereferenceable(8) @_ZSt4cout, i32 %67)
  call void @llvm.lifetime.start.p0i8(i64 1, i8* nonnull %3)
  store i8 32, i8* %3, align 1, !tbaa !12
  %69 = call nonnull align 8 dereferenceable(8) %"class.std::basic_ostream"* @_ZSt16__ostream_insertIcSt11char_traitsIcEERSt13basic_ostreamIT_T0_ES6_PKS3_l(%"class.std::basic_ostream"* nonnull align 8 dereferenceable(8) %68, i8* nonnull %3, i64 1)
  call void @llvm.lifetime.end.p0i8(i64 1, i8* nonnull %3)
  %70 = add nuw nsw i64 %65, 1
  %71 = load i32, i32* %4, align 4, !tbaa !5
  %72 = add nsw i32 %71, -1
  %73 = sext i32 %72 to i64
  %74 = icmp slt i64 %70, %73
  br i1 %74, label %64, label %75, !llvm.loop !13

75:                                               ; preds = %64
  %76 = sext i32 %71 to i64
  br label %77

77:                                               ; preds = %16, %14, %75, %44
  %78 = phi i64 [ %76, %75 ], [ %17, %44 ], [ %15, %14 ], [ %17, %16 ]
  %79 = add nsw i64 %78, -1
  %80 = getelementptr inbounds i32, i32* %11, i64 %79
  %81 = load i32, i32* %80, align 4, !tbaa !5
  %82 = call nonnull align 8 dereferenceable(8) %"class.std::basic_ostream"* @_ZNSolsEi(%"class.std::basic_ostream"* nonnull align 8 dereferenceable(8) @_ZSt4cout, i32 %81)
  call void @llvm.stackrestore(i8* %10)
  call void @llvm.lifetime.end.p0i8(i64 4, i8* nonnull %5) #7
  ret i32 0
}

; Function Attrs: argmemonly mustprogress nofree nosync nounwind willreturn
declare void @llvm.lifetime.start.p0i8(i64 immarg, i8* nocapture) #4

declare nonnull align 8 dereferenceable(16) %"class.std::basic_istream"* @_ZNSirsERi(%"class.std::basic_istream"* nonnull align 8 dereferenceable(16), i32* nonnull align 4 dereferenceable(4)) local_unnamed_addr #0

; Function Attrs: mustprogress nofree nosync nounwind willreturn
declare i8* @llvm.stacksave() #5

declare nonnull align 8 dereferenceable(8) %"class.std::basic_ostream"* @_ZNSolsEi(%"class.std::basic_ostream"* nonnull align 8 dereferenceable(8), i32) local_unnamed_addr #0

; Function Attrs: argmemonly mustprogress nofree nosync nounwind willreturn
declare void @llvm.lifetime.end.p0i8(i64 immarg, i8* nocapture) #4

; Function Attrs: mustprogress nofree nosync nounwind willreturn
declare void @llvm.stackrestore(i8*) #5

declare nonnull align 8 dereferenceable(8) %"class.std::basic_ostream"* @_ZSt16__ostream_insertIcSt11char_traitsIcEERSt13basic_ostreamIT_T0_ES6_PKS3_l(%"class.std::basic_ostream"* nonnull align 8 dereferenceable(8), i8*, i64) local_unnamed_addr #0

; Function Attrs: sspstrong uwtable
define internal void @_GLOBAL__sub_I_2377.cpp() #6 section ".text.startup" {
  tail call void @_ZNSt8ios_base4InitC1Ev(%"class.std::ios_base::Init"* nonnull align 1 dereferenceable(1) @_ZStL8__ioinit)
  %1 = tail call i32 @__cxa_atexit(void (i8*)* bitcast (void (%"class.std::ios_base::Init"*)* @_ZNSt8ios_base4InitD1Ev to void (i8*)*), i8* getelementptr inbounds (%"class.std::ios_base::Init", %"class.std::ios_base::Init"* @_ZStL8__ioinit, i64 0, i32 0), i8* nonnull @__dso_handle) #7
  ret void
}


!llvm.module.flags = !{!0, !1, !2, !3}
!llvm.ident = !{!4}

!0 = !{i32 1, !"wchar_size", i32 4}
!1 = !{i32 7, !"PIC Level", i32 2}
!2 = !{i32 7, !"PIE Level", i32 2}
!3 = !{i32 7, !"uwtable", i32 1}
!4 = !{!"clang version 13.0.0"}
!5 = !{!6, !6, i64 0}
!6 = !{!"int", !7, i64 0}
!7 = !{!"omnipotent char", !8, i64 0}
!8 = !{!"Simple C++ TBAA"}
!9 = distinct !{!9, !10}
!10 = !{!"llvm.loop.mustprogress"}
!11 = distinct !{!11, !10}
!12 = !{!7, !7, i64 0}
!13 = distinct !{!13, !10}
